	.file	"main.c"
	.text
.Ltext0:
	.file 0 "/home/danila/caos_all/2023_caos/sem4/examples/crackme_1" "main.c"
	.section	.rodata
.LC0:
	.string	"WIN-WIN"
	.text
	.globl	call_me
	.type	call_me, @function
call_me:
.LFB6:
	.file 1 "main.c"
	.loc 1 4 16
	.cfi_startproc
	pushq	%rbp
	.cfi_def_cfa_offset 16
	.cfi_offset 6, -16
	movq	%rsp, %rbp
	.cfi_def_cfa_register 6
	.loc 1 5 5
	leaq	.LC0(%rip), %rax
	movq	%rax, %rdi
	call	puts@PLT
	.loc 1 6 5
	movl	$0, %edi
	call	exit@PLT
	.cfi_endproc
.LFE6:
	.size	call_me, .-call_me
	.section	.rodata
.LC1:
	.string	"%s"
.LC2:
	.string	"Hello, %s\n"
	.text
	.globl	do_smth
	.type	do_smth, @function
do_smth:
.LFB7:
	.loc 1 9 16
	.cfi_startproc
	pushq	%rbp
	.cfi_def_cfa_offset 16
	.cfi_offset 6, -16
	movq	%rsp, %rbp
	.cfi_def_cfa_register 6
	subq	$16, %rsp
	.loc 1 10 10
	movabsq	$7809653110349852531, %rax
	movl	$25973, %edx
	movq	%rax, -16(%rbp)
	movq	%rdx, -8(%rbp)
	.loc 1 11 5
	leaq	-16(%rbp), %rax
	movq	%rax, %rsi
	leaq	.LC1(%rip), %rax
	movq	%rax, %rdi
	movl	$0, %eax
	call	__isoc99_scanf@PLT
	.loc 1 12 5
	leaq	-16(%rbp), %rax
	movq	%rax, %rsi
	leaq	.LC2(%rip), %rax
	movq	%rax, %rdi
	movl	$0, %eax
	call	printf@PLT
	.loc 1 13 1
	nop
	leave
	.cfi_restore 6
	.cfi_def_cfa 7, 8
	ret
	.cfi_endproc
.LFE7:
	.size	do_smth, .-do_smth
	.globl	main
	.type	main, @function
main:
.LFB8:
	.loc 1 15 12
	.cfi_startproc
	pushq	%rbp
	.cfi_def_cfa_offset 16
	.cfi_offset 6, -16
	movq	%rsp, %rbp
	.cfi_def_cfa_register 6
	.loc 1 16 5
	movl	$0, %eax
	call	do_smth
	.loc 1 17 12
	movl	$0, %eax
	.loc 1 18 1
	popq	%rbp
	.cfi_restore 6
	.cfi_def_cfa 7, 8
	ret
	.cfi_endproc
.LFE8:
	.size	main, .-main
.Letext0:
	.file 2 "/usr/include/stdio.h"
	.file 3 "/usr/include/stdlib.h"
	.section	.note.GNU-stack,"",@progbits
